target datalayout = "e-m:e-p270:32:32-p271:32:32-p272:64:64-i64:64-i128:128-f80:128-n8:16:32:64-S128"
target triple = "x86_64-pc-linux-gnu"

; Function Attrs: nounwind uwtable
define dso_local void @_Py_closerange(i32 noundef %0, i32 noundef %1) #0 {
  %3 = alloca i32, align 4
  %4 = alloca i32, align 4
  %5 = alloca i32, align 4
  store i32 %0, ptr %3, align 4, !tbaa !4
  store i32 %1, ptr %4, align 4, !tbaa !4
  %6 = load i32, ptr %3, align 4, !tbaa !4
  %7 = icmp sgt i32 %6, 0
  br i1 %7, label %8, label %10

8:                                                ; preds = %2
  %9 = load i32, ptr %3, align 4, !tbaa !4
  br label %11

10:                                               ; preds = %2
  br label %11

11:                                               ; preds = %10, %8
  %12 = phi i32 [ %9, %8 ], [ 0, %10 ]
  store i32 %12, ptr %3, align 4, !tbaa !4
  %13 = load i32, ptr %3, align 4, !tbaa !4
  %14 = load i32, ptr %4, align 4, !tbaa !4
  %15 = call i32 @close_range(i32 noundef %13, i32 noundef %14, i32 noundef 0) #10
  %16 = icmp eq i32 %15, 0
  br i1 %16, label %17, label %18

17:                                               ; preds = %11
  br label %40

18:                                               ; preds = %11
  %19 = load i32, ptr %4, align 4, !tbaa !4
  %20 = sext i32 %19 to i64
  %21 = call i64 @sysconf(i32 noundef 4) #10
  %22 = icmp sge i64 %20, %21
  br i1 %22, label %23, label %25

23:                                               ; preds = %18
  %24 = load i32, ptr %3, align 4, !tbaa !4
  call void @closefrom(i32 noundef %24) #10
  br label %39

25:                                               ; preds = %18
  call void @llvm.lifetime.start.p0(i64 4, ptr %5) #10
  %26 = load i32, ptr %3, align 4, !tbaa !4
  store i32 %26, ptr %5, align 4, !tbaa !4
  br label %27

27:                                               ; preds = %35, %25
  %28 = load i32, ptr %5, align 4, !tbaa !4
  %29 = load i32, ptr %4, align 4, !tbaa !4
  %30 = icmp sle i32 %28, %29
  br i1 %30, label %32, label %31

31:                                               ; preds = %27
  call void @llvm.lifetime.end.p0(i64 4, ptr %5) #10
  br label %38

32:                                               ; preds = %27
  %33 = load i32, ptr %5, align 4, !tbaa !4
  %34 = call i32 @close(i32 noundef %33)
  br label %35

35:                                               ; preds = %32
  %36 = load i32, ptr %5, align 4, !tbaa !4
  %37 = add i32 %36, 1
  store i32 %37, ptr %5, align 4, !tbaa !4
  br label %27, !llvm.loop !214

38:                                               ; preds = %31
  br label %39

39:                                               ; preds = %38, %23
  br label %40

40:                                               ; preds = %39, %17
  ret void
}