; Function Attrs: nounwind uwtable
define dso_local void @_Py_closerange(i32 noundef %0, i32 noundef %1) local_unnamed_addr #0 {
  %3 = tail call i32 @llvm.smax.i32(i32 %0, i32 0)
  %4 = tail call i32 @close_range(i32 noundef %3, i32 noundef %1, i32 noundef 0) #17
  %5 = icmp eq i32 %4, 0
  br i1 %5, label %.loopexit, label %6

6:                                                ; preds = %2
  %7 = sext i32 %1 to i64
  %8 = tail call i64 @sysconf(i32 noundef 4) #17
  %.not = icmp sgt i64 %8, %7
  br i1 %.not, label %.preheader, label %9

.preheader:                                       ; preds = %6
  %.not1112 = icmp sgt i32 %3, %1
  br i1 %.not1112, label %.loopexit, label %.lr.ph

9:                                                ; preds = %6
  tail call void @closefrom(i32 noundef %3) #17
  br label %.loopexit

.lr.ph:                                           ; preds = %.preheader, %.lr.ph
  %.013 = phi i32 [ %11, %.lr.ph ], [ %3, %.preheader ]
  %10 = tail call i32 @close(i32 noundef %.013) #17
  %11 = add i32 %.013, 1
  %.not11 = icmp sgt i32 %11, %1
  br i1 %.not11, label %.loopexit, label %.lr.ph, !llvm.loop !203

.loopexit:                                        ; preds = %.lr.ph, %.preheader, %9, %2
  ret void
}